; Function Attrs: mustprogress nounwind uwtable
define internal fastcc noundef ptr @_ZN4llvm14ImutAVLFactoryINS_16ImutKeyValueInfoIPKN5clang4ento9MemRegionEN12_GLOBAL__N_111ObjectStateEEEE12add_internalERKSt4pairIS6_S8_EPNS_11ImutAVLTreeIS9_EE(ptr noundef nonnull align 8 dereferenceable(80) %0, ptr noundef nonnull align 8 dereferenceable(9) %1, ptr noundef readonly %2) unnamed_addr #0 align 2 {
  %.not.i = icmp eq ptr %2, null
  br i1 %.not.i, label %4, label %6

4:                                                ; preds = %3
  %5 = tail call fastcc noundef ptr @_ZN4llvm14ImutAVLFactoryINS_16ImutKeyValueInfoIPKN5clang4ento9MemRegionEN12_GLOBAL__N_111ObjectStateEEEE10createNodeEPNS_11ImutAVLTreeIS9_EERKSt4pairIS6_S8_ESD_(ptr noundef nonnull align 8 dereferenceable(80) %0, ptr noundef null, ptr noundef nonnull align 8 dereferenceable(9) %1, ptr noundef null)
  br label %common.ret32

6:                                                ; preds = %3
  %7 = getelementptr inbounds nuw i8, ptr %2, i64 48
  %.val = load ptr, ptr %1, align 8
  %.val23 = load ptr, ptr %7, align 8
  %8 = icmp eq ptr %.val, %.val23
  br i1 %8, label %9, label %13

9:                                                ; preds = %6
  %10 = getelementptr i8, ptr %2, i64 8
  %.val24 = load ptr, ptr %10, align 8
  %11 = getelementptr i8, ptr %2, i64 16
  %.val27 = load ptr, ptr %11, align 8
  %12 = tail call fastcc noundef ptr @_ZN4llvm14ImutAVLFactoryINS_16ImutKeyValueInfoIPKN5clang4ento9MemRegionEN12_GLOBAL__N_111ObjectStateEEEE10createNodeEPNS_11ImutAVLTreeIS9_EERKSt4pairIS6_S8_ESD_(ptr noundef nonnull align 8 dereferenceable(80) %0, ptr noundef %.val24, ptr noundef nonnull align 8 dereferenceable(9) %1, ptr noundef %.val27)
  br label %common.ret32

13:                                               ; preds = %6
  %14 = icmp ult ptr %.val, %.val23
  %15 = getelementptr i8, ptr %2, i64 8
  %.val25 = load ptr, ptr %15, align 8
  br i1 %14, label %16, label %20

common.ret32:                                     ; preds = %9, %4, %20, %16
  %common.ret32.op = phi ptr [ %19, %16 ], [ %23, %20 ], [ %5, %4 ], [ %12, %9 ]
  ret ptr %common.ret32.op

16:                                               ; preds = %13
  %17 = tail call fastcc noundef ptr @_ZN4llvm14ImutAVLFactoryINS_16ImutKeyValueInfoIPKN5clang4ento9MemRegionEN12_GLOBAL__N_111ObjectStateEEEE12add_internalERKSt4pairIS6_S8_EPNS_11ImutAVLTreeIS9_EE(ptr noundef nonnull align 8 dereferenceable(80) %0, ptr noundef nonnull align 8 dereferenceable(9) %1, ptr noundef %.val25)
  %18 = getelementptr i8, ptr %2, i64 16
  %.val28 = load ptr, ptr %18, align 8
  %19 = tail call fastcc noundef ptr @_ZN4llvm14ImutAVLFactoryINS_16ImutKeyValueInfoIPKN5clang4ento9MemRegionEN12_GLOBAL__N_111ObjectStateEEEE11balanceTreeEPNS_11ImutAVLTreeIS9_EERKSt4pairIS6_S8_ESD_(ptr noundef nonnull align 8 dereferenceable(80) %0, ptr noundef %17, ptr noundef nonnull align 8 dereferenceable(9) %7, ptr noundef %.val28)
  br label %common.ret32

20:                                               ; preds = %13
  %21 = getelementptr i8, ptr %2, i64 16
  %.val29 = load ptr, ptr %21, align 8
  %22 = tail call fastcc noundef ptr @_ZN4llvm14ImutAVLFactoryINS_16ImutKeyValueInfoIPKN5clang4ento9MemRegionEN12_GLOBAL__N_111ObjectStateEEEE12add_internalERKSt4pairIS6_S8_EPNS_11ImutAVLTreeIS9_EE(ptr noundef nonnull align 8 dereferenceable(80) %0, ptr noundef nonnull align 8 dereferenceable(9) %1, ptr noundef %.val29)
  %23 = tail call fastcc noundef ptr @_ZN4llvm14ImutAVLFactoryINS_16ImutKeyValueInfoIPKN5clang4ento9MemRegionEN12_GLOBAL__N_111ObjectStateEEEE11balanceTreeEPNS_11ImutAVLTreeIS9_EERKSt4pairIS6_S8_ESD_(ptr noundef nonnull align 8 dereferenceable(80) %0, ptr noundef %.val25, ptr noundef nonnull align 8 dereferenceable(9) %7, ptr noundef %22)
  br label %common.ret32
}